target datalayout = "e-m:e-p270:32:32-p271:32:32-p272:64:64-i64:64-i128:128-f80:128-n8:16:32:64-S128"
target triple = "x86_64-pc-linux-gnu"

%struct.Curl_easy = type { i32, i64, i64, ptr, %struct.Curl_llist_node, %struct.Curl_llist_node, i32, i32, %struct.Curl_message, %struct.easy_pollset, %struct.Names, ptr, ptr, ptr, %struct.SingleRequest, %struct.UserDefined, ptr, ptr, %struct.Progress, %struct.UrlState, ptr, %struct.PureInfo, %struct.curl_tlssessioninfo }
%struct.Curl_llist_node = type { ptr, ptr, ptr, ptr }
%struct.Curl_message = type { %struct.Curl_llist_node, %struct.CURLMsg }
%struct.CURLMsg = type { i32, ptr, %union.anon }
%union.anon = type { ptr }
%struct.easy_pollset = type { [5 x i32], i32, [5 x i8] }
%struct.Names = type { ptr, i32 }
%struct.SingleRequest = type <{ i64, i64, i64, i64, %struct.curltime, i32, i32, i32, i32, i64, i32, i32, i32, i32, ptr, ptr, %struct.bufq, i64, i64, ptr, ptr, %union.anon.0, ptr, i8, i32, [3 x i8] }>
%struct.curltime = type { i64, i32 }
%struct.bufq = type { ptr, ptr, ptr, ptr, i64, i64, i64, i32 }
%union.anon.0 = type { ptr }
%struct.UserDefined = type <{ ptr, ptr, ptr, ptr, ptr, ptr, i16, [6 x i8], i64, i64, i64, ptr, ptr, i64, i16, i16, [4 x i8], ptr, ptr, ptr, ptr, ptr, ptr, ptr, ptr, ptr, ptr, ptr, ptr, ptr, ptr, ptr, ptr, ptr, ptr, ptr, ptr, ptr, ptr, ptr, i32, i32, i32, i32, i32, [4 x i8], i64, i64, i64, i64, i64, i64, i64, i64, ptr, ptr, %struct.curl_mimepart, ptr, ptr, i64, i8, i8, i8, [5 x i8], %struct.ssl_config_data, %struct.ssl_config_data, ptr, i16, i8, i8, [4 x i8], %struct.ssl_general_config, i32, i32, i32, [4 x i8], ptr, ptr, i8, [7 x i8], i64, i8, i8, i8, i8, i32, ptr, ptr, ptr, i8, i8, [2 x i8], i32, [63 x ptr], [8 x ptr], i32, i32, i32, [4 x i8], ptr, ptr, ptr, ptr, ptr, i8, [3 x i8], i32, i32, i32, i64, %struct.Curl_data_priority, ptr, ptr, i64, ptr, i64, ptr, ptr, ptr, i8, [3 x i8], i32, i8, i8, i64, [6 x i8] }>
%struct.curl_mimepart = type { ptr, ptr, i32, i32, ptr, ptr, ptr, ptr, ptr, ptr, ptr, ptr, ptr, ptr, ptr, i64, %struct.mime_state, ptr, %struct.mime_encoder_state, i64 }
%struct.mime_state = type { i32, ptr, i64 }
%struct.mime_encoder_state = type { i64, i64, i64, [256 x i8] }
%struct.ssl_config_data = type { %struct.ssl_primary_config, i64, ptr, ptr, ptr, ptr, ptr, ptr, ptr, i16 }
%struct.ssl_primary_config = type { ptr, ptr, ptr, ptr, ptr, ptr, ptr, ptr, ptr, ptr, ptr, ptr, i8, i32, i8, i8 }
%struct.ssl_general_config = type { i64, i32 }
%struct.Curl_data_priority = type { ptr, ptr, i32, i8 }
%struct.Progress = type { i64, %struct.pgrs_dir, %struct.pgrs_dir, i64, i64, i32, i32, i64, i64, i64, i64, i64, i64, i64, i64, i64, %struct.curltime, %struct.curltime, %struct.curltime, %struct.curltime, [6 x i64], [6 x %struct.curltime], i32, i8 }
%struct.pgrs_dir = type { i64, i64, i64, %struct.pgrs_measure }
%struct.pgrs_measure = type { %struct.curltime, i64 }
%struct.UrlState = type { %struct.curltime, i64, i64, %struct.dynbuf, ptr, i64, ptr, i32, i32, i32, ptr, i64, i32, i64, i32, ptr, %struct.digestdata, %struct.digestdata, %struct.auth, %struct.auth, %struct.Curl_async, ptr, %struct.curltime, %struct.Curl_tree, %struct.Curl_llist, [15 x %struct.time_node], ptr, ptr, i64, i64, %struct.Curl_data_priority, ptr, ptr, ptr, %struct.urlpieces, ptr, ptr, ptr, ptr, ptr, i64, %struct.dynbuf, %struct.Curl_llist, [2 x %struct.curl_header], ptr, i32, ptr, ptr, %struct.store_netrc, %struct.dynamically_allocated_data, i8, i8, i8, i8, i32 }
%struct.digestdata = type { ptr, ptr, ptr, ptr, ptr, ptr, i32, i8, i8 }
%struct.auth = type { i64, i64, i64, i8 }
%struct.Curl_async = type { ptr, ptr, ptr, ptr, i32, i32, i8 }
%struct.Curl_tree = type { ptr, ptr, ptr, ptr, %struct.curltime, ptr }
%struct.time_node = type { %struct.Curl_llist_node, %struct.curltime, i32 }
%struct.urlpieces = type { ptr, ptr, ptr, ptr, ptr, ptr, ptr, ptr }
%struct.dynbuf = type { ptr, i64, i64, i64 }
%struct.Curl_llist = type { ptr, ptr, ptr, i64 }
%struct.curl_header = type { ptr, ptr, i64, i64, i32, ptr }
%struct.store_netrc = type { %struct.dynbuf, ptr, i8 }
%struct.dynamically_allocated_data = type { ptr, ptr, ptr, ptr, ptr, ptr, ptr, ptr, ptr, ptr, ptr, ptr, ptr }
%struct.PureInfo = type { i32, i32, i32, i64, i64, i64, i64, i64, ptr, ptr, i64, i32, %struct.ip_quadruple, i32, ptr, i32, %struct.curl_certinfo, i32, i8 }
%struct.ip_quadruple = type { [46 x i8], [46 x i8], i32, i32 }
%struct.curl_certinfo = type { i32, ptr }
%struct.curl_tlssessioninfo = type { i32, ptr }

@stdout = external global ptr, align 8
@stdin = external global ptr, align 8
@stderr = external global ptr, align 8

; Function Attrs: nounwind uwtable
define dso_local i32 @Curl_init_userdefined(ptr noundef %0) #0 {
  %2 = alloca ptr, align 8
  %3 = alloca ptr, align 8
  %4 = alloca i32, align 4
  store ptr %0, ptr %2, align 8, !tbaa !4
  call void @llvm.lifetime.start.p0(i64 8, ptr %3) #8
  %5 = load ptr, ptr %2, align 8, !tbaa !4
  %6 = getelementptr inbounds nuw %struct.Curl_easy, ptr %5, i32 0, i32 15
  store ptr %6, ptr %3, align 8, !tbaa !134
  call void @llvm.lifetime.start.p0(i64 4, ptr %4) #8
  store i32 0, ptr %4, align 4, !tbaa !9
  %7 = load ptr, ptr @stdout, align 8, !tbaa !136
  %8 = load ptr, ptr %3, align 8, !tbaa !134
  %9 = getelementptr inbounds nuw %struct.UserDefined, ptr %8, i32 0, i32 3
  store ptr %7, ptr %9, align 8, !tbaa !137
  %10 = load ptr, ptr @stdin, align 8, !tbaa !136
  %11 = load ptr, ptr %3, align 8, !tbaa !134
  %12 = getelementptr inbounds nuw %struct.UserDefined, ptr %11, i32 0, i32 4
  store ptr %10, ptr %12, align 8, !tbaa !138
  %13 = load ptr, ptr @stderr, align 8, !tbaa !136
  %14 = load ptr, ptr %3, align 8, !tbaa !134
  %15 = getelementptr inbounds nuw %struct.UserDefined, ptr %14, i32 0, i32 0
  store ptr %13, ptr %15, align 8, !tbaa !139
  %16 = load ptr, ptr %3, align 8, !tbaa !134
  %17 = getelementptr inbounds nuw %struct.UserDefined, ptr %16, i32 0, i32 17
  store ptr @fwrite, ptr %17, align 8, !tbaa !140
  %18 = load ptr, ptr %3, align 8, !tbaa !134
  %19 = getelementptr inbounds nuw %struct.UserDefined, ptr %18, i32 0, i32 20
  store ptr @fread, ptr %19, align 8, !tbaa !141
  %20 = load ptr, ptr %3, align 8, !tbaa !134
  %21 = getelementptr inbounds nuw %struct.UserDefined, ptr %20, i32 0, i32 124
  %22 = load i64, ptr %21, align 2
  %23 = and i64 %22, -3
  %24 = or i64 %23, 0
  store i64 %24, ptr %21, align 2
  %25 = load ptr, ptr %3, align 8, !tbaa !134
  %26 = getelementptr inbounds nuw %struct.UserDefined, ptr %25, i32 0, i32 33
  store ptr null, ptr %26, align 8, !tbaa !142
  %27 = load ptr, ptr %3, align 8, !tbaa !134
  %28 = getelementptr inbounds nuw %struct.UserDefined, ptr %27, i32 0, i32 48
  store i64 -1, ptr %28, align 8, !tbaa !143
  %29 = load ptr, ptr %3, align 8, !tbaa !134
  %30 = getelementptr inbounds nuw %struct.UserDefined, ptr %29, i32 0, i32 13
  store i64 -1, ptr %30, align 8, !tbaa !144
  %31 = load ptr, ptr %3, align 8, !tbaa !134
  %32 = getelementptr inbounds nuw %struct.UserDefined, ptr %31, i32 0, i32 10
  store i64 30, ptr %32, align 8, !tbaa !145
  %33 = load ptr, ptr %3, align 8, !tbaa !134
  %34 = getelementptr inbounds nuw %struct.UserDefined, ptr %33, i32 0, i32 61
  store i8 0, ptr %34, align 1, !tbaa !146
  %35 = load ptr, ptr %3, align 8, !tbaa !134
  %36 = getelementptr inbounds nuw %struct.UserDefined, ptr %35, i32 0, i32 124
  %37 = load i64, ptr %36, align 2
  %38 = and i64 %37, -4097
  %39 = or i64 %38, 4096
  store i64 %39, ptr %36, align 2
  %40 = load ptr, ptr %3, align 8, !tbaa !134
  %41 = getelementptr inbounds nuw %struct.UserDefined, ptr %40, i32 0, i32 124
  %42 = load i64, ptr %41, align 2
  %43 = and i64 %42, -8193
  %44 = or i64 %43, 8192
  store i64 %44, ptr %41, align 2
  %45 = load ptr, ptr %3, align 8, !tbaa !134
  %46 = getelementptr inbounds nuw %struct.UserDefined, ptr %45, i32 0, i32 124
  %47 = load i64, ptr %46, align 2
  %48 = and i64 %47, -16385
  %49 = or i64 %48, 0
  store i64 %49, ptr %46, align 2
  %50 = load ptr, ptr %3, align 8, !tbaa !134
  %51 = getelementptr inbounds nuw %struct.UserDefined, ptr %50, i32 0, i32 81
  store i8 1, ptr %51, align 8, !tbaa !147
  %52 = load ptr, ptr %3, align 8, !tbaa !134
  %53 = getelementptr inbounds nuw %struct.UserDefined, ptr %52, i32 0, i32 124
  %54 = load i64, ptr %53, align 2
  %55 = and i64 %54, -32769
  %56 = or i64 %55, 32768
  store i64 %56, ptr %53, align 2
  %57 = load ptr, ptr %3, align 8, !tbaa !134
  %58 = getelementptr inbounds nuw %struct.UserDefined, ptr %57, i32 0, i32 72
  store i32 60, ptr %58, align 8, !tbaa !148
  %59 = load ptr, ptr %3, align 8, !tbaa !134
  %60 = getelementptr inbounds nuw %struct.UserDefined, ptr %59, i32 0, i32 71
  %61 = getelementptr inbounds nuw %struct.ssl_general_config, ptr %60, i32 0, i32 0
  store i64 5, ptr %61, align 8, !tbaa !149
  %62 = load ptr, ptr %3, align 8, !tbaa !134
  %63 = getelementptr inbounds nuw %struct.UserDefined, ptr %62, i32 0, i32 71
  %64 = getelementptr inbounds nuw %struct.ssl_general_config, ptr %63, i32 0, i32 1
  store i32 86400, ptr %64, align 8, !tbaa !150
  %65 = load ptr, ptr %3, align 8, !tbaa !134
  %66 = getelementptr inbounds nuw %struct.UserDefined, ptr %65, i32 0, i32 8
  store i64 1, ptr %66, align 8, !tbaa !151
  %67 = load ptr, ptr %3, align 8, !tbaa !134
  %68 = getelementptr inbounds nuw %struct.UserDefined, ptr %67, i32 0, i32 67
  store i16 0, ptr %68, align 8, !tbaa !152
  %69 = load ptr, ptr %3, align 8, !tbaa !134
  %70 = getelementptr inbounds nuw %struct.UserDefined, ptr %69, i32 0, i32 68
  store i8 0, ptr %70, align 2, !tbaa !153
  %71 = load ptr, ptr %3, align 8, !tbaa !134
  %72 = getelementptr inbounds nuw %struct.UserDefined, ptr %71, i32 0, i32 9
  store i64 1, ptr %72, align 8, !tbaa !154
  %73 = load ptr, ptr %3, align 8, !tbaa !134
  %74 = getelementptr inbounds nuw %struct.UserDefined, ptr %73, i32 0, i32 69
  store i8 5, ptr %74, align 1, !tbaa !155
  %75 = load ptr, ptr %3, align 8, !tbaa !134
  %76 = getelementptr inbounds nuw %struct.UserDefined, ptr %75, i32 0, i32 124
  %77 = load i64, ptr %76, align 2
  %78 = and i64 %77, -131073
  %79 = or i64 %78, 131072
  store i64 %79, ptr %76, align 2
  %80 = load ptr, ptr %3, align 8, !tbaa !134
  %81 = getelementptr inbounds nuw %struct.UserDefined, ptr %80, i32 0, i32 56
  call void @Curl_mime_initpart(ptr noundef %81)
  %82 = load ptr, ptr %2, align 8, !tbaa !4
  call void @Curl_ssl_easy_config_init(ptr noundef %82)
  %83 = load ptr, ptr %3, align 8, !tbaa !134
  %84 = getelementptr inbounds nuw %struct.UserDefined, ptr %83, i32 0, i32 124
  %85 = load i64, ptr %84, align 2
  %86 = and i64 %85, -281474976710657
  %87 = or i64 %86, 281474976710656
  store i64 %87, ptr %84, align 2
  %88 = load ptr, ptr %3, align 8, !tbaa !134
  %89 = getelementptr inbounds nuw %struct.UserDefined, ptr %88, i32 0, i32 124
  %90 = load i64, ptr %89, align 2
  %91 = and i64 %90, -140737488355329
  %92 = or i64 %91, 140737488355328
  store i64 %92, ptr %89, align 2
  %93 = load ptr, ptr %3, align 8, !tbaa !134
  %94 = getelementptr inbounds nuw %struct.UserDefined, ptr %93, i32 0, i32 92
  store i32 420, ptr %94, align 4, !tbaa !156
  %95 = load ptr, ptr %3, align 8, !tbaa !134
  %96 = getelementptr inbounds nuw %struct.UserDefined, ptr %95, i32 0, i32 96
  store i32 -1, ptr %96, align 4, !tbaa !157
  %97 = load ptr, ptr %3, align 8, !tbaa !134
  %98 = getelementptr inbounds nuw %struct.UserDefined, ptr %97, i32 0, i32 97
  store i32 15, ptr %98, align 8, !tbaa !158
  %99 = call i32 @Curl_ssl_backend()
  %100 = icmp ne i32 %99, 8
  br i1 %100, label %101, label %105

101:                                              ; preds = %1
  %102 = call i32 @Curl_ssl_backend()
  %103 = icmp ne i32 %102, 9
  br i1 %103, label %104, label %105

104:                                              ; preds = %101
  br label %105

105:                                              ; preds = %104, %101, %1
  %106 = load ptr, ptr %3, align 8, !tbaa !134
  %107 = getelementptr inbounds nuw %struct.UserDefined, ptr %106, i32 0, i32 124
  %108 = load i64, ptr %107, align 2
  %109 = and i64 %108, -65537
  %110 = or i64 %109, 0
  store i64 %110, ptr %107, align 2
  %111 = load ptr, ptr %3, align 8, !tbaa !134
  %112 = getelementptr inbounds nuw %struct.UserDefined, ptr %111, i32 0, i32 99
  store ptr null, ptr %112, align 8, !tbaa !159
  %113 = load ptr, ptr %3, align 8, !tbaa !134
  %114 = getelementptr inbounds nuw %struct.UserDefined, ptr %113, i32 0, i32 100
  store ptr null, ptr %114, align 8, !tbaa !160
  %115 = load ptr, ptr %3, align 8, !tbaa !134
  %116 = getelementptr inbounds nuw %struct.UserDefined, ptr %115, i32 0, i32 101
  store ptr null, ptr %116, align 8, !tbaa !161
  %117 = load ptr, ptr %3, align 8, !tbaa !134
  %118 = getelementptr inbounds nuw %struct.UserDefined, ptr %117, i32 0, i32 124
  %119 = load i64, ptr %118, align 2
  %120 = and i64 %119, -137438953473
  %121 = or i64 %120, 0
  store i64 %121, ptr %118, align 2
  %122 = load ptr, ptr %3, align 8, !tbaa !134
  %123 = getelementptr inbounds nuw %struct.UserDefined, ptr %122, i32 0, i32 107
  store i32 60, ptr %123, align 8, !tbaa !162
  %124 = load ptr, ptr %3, align 8, !tbaa !134
  %125 = getelementptr inbounds nuw %struct.UserDefined, ptr %124, i32 0, i32 106
  store i32 60, ptr %125, align 4, !tbaa !163
  %126 = load ptr, ptr %3, align 8, !tbaa !134
  %127 = getelementptr inbounds nuw %struct.UserDefined, ptr %126, i32 0, i32 108
  store i32 9, ptr %127, align 4, !tbaa !164
  %128 = load ptr, ptr %3, align 8, !tbaa !134
  %129 = getelementptr inbounds nuw %struct.UserDefined, ptr %128, i32 0, i32 124
  %130 = load i64, ptr %129, align 2
  %131 = and i64 %130, -274877906945
  %132 = or i64 %131, 0
  store i64 %132, ptr %129, align 2
  %133 = load ptr, ptr %3, align 8, !tbaa !134
  %134 = getelementptr inbounds nuw %struct.UserDefined, ptr %133, i32 0, i32 124
  %135 = load i64, ptr %134, align 2
  %136 = and i64 %135, -2147483649
  %137 = or i64 %136, 2147483648
  store i64 %137, ptr %134, align 2
  %138 = load ptr, ptr %3, align 8, !tbaa !134
  %139 = getelementptr inbounds nuw %struct.UserDefined, ptr %138, i32 0, i32 124
  %140 = load i64, ptr %139, align 2
  %141 = and i64 %140, -549755813889
  %142 = or i64 %141, 549755813888
  store i64 %142, ptr %139, align 2
  %143 = load ptr, ptr %3, align 8, !tbaa !134
  %144 = getelementptr inbounds nuw %struct.UserDefined, ptr %143, i32 0, i32 109
  store i64 1000, ptr %144, align 8, !tbaa !165
  %145 = load ptr, ptr %3, align 8, !tbaa !134
  %146 = getelementptr inbounds nuw %struct.UserDefined, ptr %145, i32 0, i32 124
  %147 = load i64, ptr %146, align 2
  %148 = and i64 %147, -5
  %149 = or i64 %148, 4
  store i64 %149, ptr %146, align 2
  %150 = load ptr, ptr %3, align 8, !tbaa !134
  %151 = getelementptr inbounds nuw %struct.UserDefined, ptr %150, i32 0, i32 73
  store i32 16384, ptr %151, align 4, !tbaa !166
  %152 = load ptr, ptr %3, align 8, !tbaa !134
  %153 = getelementptr inbounds nuw %struct.UserDefined, ptr %152, i32 0, i32 74
  store i32 65536, ptr %153, align 8, !tbaa !167
  %154 = load ptr, ptr %3, align 8, !tbaa !134
  %155 = getelementptr inbounds nuw %struct.UserDefined, ptr %154, i32 0, i32 42
  store i32 200, ptr %155, align 8, !tbaa !168
  %156 = load ptr, ptr %3, align 8, !tbaa !134
  %157 = getelementptr inbounds nuw %struct.UserDefined, ptr %156, i32 0, i32 113
  store i64 60000, ptr %157, align 8, !tbaa !169
  %158 = load ptr, ptr %3, align 8, !tbaa !134
  %159 = getelementptr inbounds nuw %struct.UserDefined, ptr %158, i32 0, i32 121
  store i32 5, ptr %159, align 4, !tbaa !170
  %160 = load ptr, ptr %3, align 8, !tbaa !134
  %161 = getelementptr inbounds nuw %struct.UserDefined, ptr %160, i32 0, i32 46
  store i64 118, ptr %161, align 8, !tbaa !171
  %162 = load ptr, ptr %3, align 8, !tbaa !134
  %163 = getelementptr inbounds nuw %struct.UserDefined, ptr %162, i32 0, i32 47
  store i64 0, ptr %163, align 8, !tbaa !172
  %164 = load ptr, ptr %3, align 8, !tbaa !134
  %165 = getelementptr inbounds nuw %struct.UserDefined, ptr %164, i32 0, i32 124
  %166 = load i64, ptr %165, align 2
  %167 = and i64 %166, -1125899906842625
  %168 = or i64 %167, 0
  store i64 %168, ptr %165, align 2
  %169 = load ptr, ptr %3, align 8, !tbaa !134
  %170 = getelementptr inbounds nuw %struct.UserDefined, ptr %169, i32 0, i32 62
  store i8 4, ptr %170, align 2, !tbaa !173
  %171 = load ptr, ptr %3, align 8, !tbaa !134
  %172 = getelementptr inbounds nuw %struct.UserDefined, ptr %171, i32 0, i32 110
  call void @llvm.memset.p0.i64(ptr align 8 %172, i8 0, i64 24, i1 false)
  %173 = load ptr, ptr %3, align 8, !tbaa !134
  %174 = getelementptr inbounds nuw %struct.UserDefined, ptr %173, i32 0, i32 124
  %175 = load i64, ptr %174, align 2
  %176 = and i64 %175, -33
  %177 = or i64 %176, 0
  store i64 %177, ptr %174, align 2
  %178 = load i32, ptr %4, align 4, !tbaa !9
  call void @llvm.lifetime.end.p0(i64 4, ptr %4) #8
  call void @llvm.lifetime.end.p0(i64 8, ptr %3) #8
  ret i32 %178
}