; Function Attrs: nounwind uwtable
define dso_local noundef i32 @Curl_init_userdefined(ptr noundef initializes((456, 464), (480, 496), (512, 536), (552, 560), (568, 576), (592, 600), (696, 704), (792, 800), (1321, 1322), (1704, 1708), (1712, 1724), (1728, 1732), (1776, 1777)) %0) local_unnamed_addr #0 {
  %2 = getelementptr inbounds nuw i8, ptr %0, i64 456
  %3 = load ptr, ptr @stdout, align 8, !tbaa !133
  %4 = getelementptr inbounds nuw i8, ptr %0, i64 480
  store ptr %3, ptr %4, align 8, !tbaa !134
  %5 = load ptr, ptr @stdin, align 8, !tbaa !133
  %6 = getelementptr inbounds nuw i8, ptr %0, i64 488
  store ptr %5, ptr %6, align 8, !tbaa !135
  %7 = load ptr, ptr @stderr, align 8, !tbaa !133
  store ptr %7, ptr %2, align 8, !tbaa !136
  %8 = getelementptr inbounds nuw i8, ptr %0, i64 568
  store ptr @fwrite, ptr %8, align 8, !tbaa !137
  %9 = getelementptr inbounds nuw i8, ptr %0, i64 592
  store ptr @fread, ptr %9, align 8, !tbaa !138
  %10 = getelementptr inbounds nuw i8, ptr %0, i64 2562
  %11 = load i64, ptr %10, align 2
  %12 = getelementptr inbounds nuw i8, ptr %0, i64 696
  store ptr null, ptr %12, align 8, !tbaa !139
  %13 = getelementptr inbounds nuw i8, ptr %0, i64 792
  store i64 -1, ptr %13, align 8, !tbaa !140
  %14 = getelementptr inbounds nuw i8, ptr %0, i64 552
  store i64 -1, ptr %14, align 8, !tbaa !141
  %15 = getelementptr inbounds nuw i8, ptr %0, i64 528
  store i64 30, ptr %15, align 8, !tbaa !142
  %16 = getelementptr inbounds nuw i8, ptr %0, i64 1321
  store i8 0, ptr %16, align 1, !tbaa !143
  %17 = and i64 %11, -192515
  %18 = getelementptr inbounds nuw i8, ptr %0, i64 1776
  store i8 1, ptr %18, align 8, !tbaa !144
  %19 = getelementptr inbounds nuw i8, ptr %0, i64 1728
  store i32 60, ptr %19, align 8, !tbaa !145
  %20 = getelementptr inbounds nuw i8, ptr %0, i64 1712
  store i64 5, ptr %20, align 8, !tbaa !146
  %21 = getelementptr inbounds nuw i8, ptr %0, i64 1720
  store i32 86400, ptr %21, align 8, !tbaa !147
  %22 = getelementptr inbounds nuw i8, ptr %0, i64 512
  store i64 1, ptr %22, align 8, !tbaa !148
  %23 = getelementptr inbounds nuw i8, ptr %0, i64 1704
  store i16 0, ptr %23, align 8, !tbaa !149
  %24 = getelementptr inbounds nuw i8, ptr %0, i64 1706
  store i8 0, ptr %24, align 2, !tbaa !150
  %25 = getelementptr inbounds nuw i8, ptr %0, i64 520
  store i64 1, ptr %25, align 8, !tbaa !151
  %26 = getelementptr inbounds nuw i8, ptr %0, i64 1707
  store i8 5, ptr %26, align 1, !tbaa !152
  %27 = or disjoint i64 %17, 176128
  store i64 %27, ptr %10, align 2
  %28 = getelementptr inbounds nuw i8, ptr %0, i64 856
  tail call void @Curl_mime_initpart(ptr noundef nonnull %28) #12
  tail call void @Curl_ssl_easy_config_init(ptr noundef %0) #12
  %29 = load i64, ptr %10, align 2
  %30 = or i64 %29, 422212465065984
  store i64 %30, ptr %10, align 2
  %31 = getelementptr inbounds nuw i8, ptr %0, i64 1812
  store i32 420, ptr %31, align 4, !tbaa !153
  %32 = getelementptr inbounds nuw i8, ptr %0, i64 2388
  store i32 -1, ptr %32, align 4, !tbaa !154
  %33 = getelementptr inbounds nuw i8, ptr %0, i64 2392
  store i32 15, ptr %33, align 8, !tbaa !155
  %34 = tail call i32 @Curl_ssl_backend() #12
  %.not = icmp eq i32 %34, 8
  br i1 %.not, label %37, label %35

35:                                               ; preds = %1
  %36 = tail call i32 @Curl_ssl_backend() #12
  br label %37

37:                                               ; preds = %35, %1
  %38 = load i64, ptr %10, align 2
  %39 = getelementptr inbounds nuw i8, ptr %0, i64 2400
  tail call void @llvm.memset.p0.i64(ptr noundef nonnull align 8 dereferenceable(24) %39, i8 0, i64 24, i1 false)
  %40 = getelementptr inbounds nuw i8, ptr %0, i64 2448
  store i32 60, ptr %40, align 8, !tbaa !156
  %41 = getelementptr inbounds nuw i8, ptr %0, i64 2444
  store i32 60, ptr %41, align 4, !tbaa !157
  %42 = getelementptr inbounds nuw i8, ptr %0, i64 2452
  store i32 9, ptr %42, align 4, !tbaa !158
  %43 = getelementptr inbounds nuw i8, ptr %0, i64 2456
  store i64 1000, ptr %43, align 8, !tbaa !159
  %44 = getelementptr inbounds nuw i8, ptr %0, i64 1732
  store i32 16384, ptr %44, align 4, !tbaa !160
  %45 = getelementptr inbounds nuw i8, ptr %0, i64 1736
  store i32 65536, ptr %45, align 8, !tbaa !161
  %46 = getelementptr inbounds nuw i8, ptr %0, i64 760
  store i32 200, ptr %46, align 8, !tbaa !162
  %47 = getelementptr inbounds nuw i8, ptr %0, i64 2504
  store i64 60000, ptr %47, align 8, !tbaa !163
  %48 = getelementptr inbounds nuw i8, ptr %0, i64 2556
  store i32 5, ptr %48, align 4, !tbaa !164
  %49 = getelementptr inbounds nuw i8, ptr %0, i64 776
  store i64 118, ptr %49, align 8, !tbaa !165
  %50 = getelementptr inbounds nuw i8, ptr %0, i64 784
  store i64 0, ptr %50, align 8, !tbaa !166
  %51 = getelementptr inbounds nuw i8, ptr %0, i64 1322
  store i8 4, ptr %51, align 2, !tbaa !167
  %52 = getelementptr inbounds nuw i8, ptr %0, i64 2464
  tail call void @llvm.memset.p0.i64(ptr noundef nonnull align 8 dereferenceable(24) %52, i8 0, i64 24, i1 false)
  %53 = and i64 %38, -1126864127066149
  %54 = or disjoint i64 %53, 551903297540
  store i64 %54, ptr %10, align 2
  ret i32 0
}